
a.out:     file format elf32-i386


Disassembly of section .init:

080484b8 <_init>:
 80484b8:	55                   	push   %ebp
 80484b9:	89 e5                	mov    %esp,%ebp
 80484bb:	53                   	push   %ebx
 80484bc:	83 ec 04             	sub    $0x4,%esp
 80484bf:	e8 00 00 00 00       	call   80484c4 <_init+0xc>
 80484c4:	5b                   	pop    %ebx
 80484c5:	81 c3 5c 19 00 00    	add    $0x195c,%ebx
 80484cb:	8b 93 fc ff ff ff    	mov    -0x4(%ebx),%edx
 80484d1:	85 d2                	test   %edx,%edx
 80484d3:	74 05                	je     80484da <_init+0x22>
 80484d5:	e8 2e 00 00 00       	call   8048508 <__gmon_start__@plt>
 80484da:	e8 41 01 00 00       	call   8048620 <frame_dummy>
 80484df:	e8 0c 06 00 00       	call   8048af0 <__do_global_ctors_aux>
 80484e4:	58                   	pop    %eax
 80484e5:	5b                   	pop    %ebx
 80484e6:	c9                   	leave  
 80484e7:	c3                   	ret    

Disassembly of section .plt:

080484e8 <pthread_join@plt-0x10>:
 80484e8:	ff 35 24 9e 04 08    	pushl  0x8049e24
 80484ee:	ff 25 28 9e 04 08    	jmp    *0x8049e28
 80484f4:	00 00                	add    %al,(%eax)
	...

080484f8 <pthread_join@plt>:
 80484f8:	ff 25 2c 9e 04 08    	jmp    *0x8049e2c
 80484fe:	68 00 00 00 00       	push   $0x0
 8048503:	e9 e0 ff ff ff       	jmp    80484e8 <_init+0x30>

08048508 <__gmon_start__@plt>:
 8048508:	ff 25 30 9e 04 08    	jmp    *0x8049e30
 804850e:	68 08 00 00 00       	push   $0x8
 8048513:	e9 d0 ff ff ff       	jmp    80484e8 <_init+0x30>

08048518 <memset@plt>:
 8048518:	ff 25 34 9e 04 08    	jmp    *0x8049e34
 804851e:	68 10 00 00 00       	push   $0x10
 8048523:	e9 c0 ff ff ff       	jmp    80484e8 <_init+0x30>

08048528 <__libc_start_main@plt>:
 8048528:	ff 25 38 9e 04 08    	jmp    *0x8049e38
 804852e:	68 18 00 00 00       	push   $0x18
 8048533:	e9 b0 ff ff ff       	jmp    80484e8 <_init+0x30>

08048538 <perror@plt>:
 8048538:	ff 25 3c 9e 04 08    	jmp    *0x8049e3c
 804853e:	68 20 00 00 00       	push   $0x20
 8048543:	e9 a0 ff ff ff       	jmp    80484e8 <_init+0x30>

08048548 <fprintf@plt>:
 8048548:	ff 25 40 9e 04 08    	jmp    *0x8049e40
 804854e:	68 28 00 00 00       	push   $0x28
 8048553:	e9 90 ff ff ff       	jmp    80484e8 <_init+0x30>

08048558 <pthread_create@plt>:
 8048558:	ff 25 44 9e 04 08    	jmp    *0x8049e44
 804855e:	68 30 00 00 00       	push   $0x30
 8048563:	e9 80 ff ff ff       	jmp    80484e8 <_init+0x30>

08048568 <__gxx_personality_v0@plt>:
 8048568:	ff 25 48 9e 04 08    	jmp    *0x8049e48
 804856e:	68 38 00 00 00       	push   $0x38
 8048573:	e9 70 ff ff ff       	jmp    80484e8 <_init+0x30>

08048578 <pthread_setaffinity_np@plt>:
 8048578:	ff 25 4c 9e 04 08    	jmp    *0x8049e4c
 804857e:	68 40 00 00 00       	push   $0x40
 8048583:	e9 60 ff ff ff       	jmp    80484e8 <_init+0x30>

Disassembly of section .text:

08048590 <_start>:
 8048590:	31 ed                	xor    %ebp,%ebp
 8048592:	5e                   	pop    %esi
 8048593:	89 e1                	mov    %esp,%ecx
 8048595:	83 e4 f0             	and    $0xfffffff0,%esp
 8048598:	50                   	push   %eax
 8048599:	54                   	push   %esp
 804859a:	52                   	push   %edx
 804859b:	68 80 8a 04 08       	push   $0x8048a80
 80485a0:	68 90 8a 04 08       	push   $0x8048a90
 80485a5:	51                   	push   %ecx
 80485a6:	56                   	push   %esi
 80485a7:	68 64 87 04 08       	push   $0x8048764
 80485ac:	e8 77 ff ff ff       	call   8048528 <__libc_start_main@plt>
 80485b1:	f4                   	hlt    
 80485b2:	90                   	nop
 80485b3:	90                   	nop
 80485b4:	90                   	nop
 80485b5:	90                   	nop
 80485b6:	90                   	nop
 80485b7:	90                   	nop
 80485b8:	90                   	nop
 80485b9:	90                   	nop
 80485ba:	90                   	nop
 80485bb:	90                   	nop
 80485bc:	90                   	nop
 80485bd:	90                   	nop
 80485be:	90                   	nop
 80485bf:	90                   	nop

080485c0 <__do_global_dtors_aux>:
 80485c0:	55                   	push   %ebp
 80485c1:	89 e5                	mov    %esp,%ebp
 80485c3:	53                   	push   %ebx
 80485c4:	8d 64 24 fc          	lea    -0x4(%esp),%esp
 80485c8:	80 3d 84 9e 04 08 00 	cmpb   $0x0,0x8049e84
 80485cf:	75 3e                	jne    804860f <__do_global_dtors_aux+0x4f>
 80485d1:	bb 2c 9d 04 08       	mov    $0x8049d2c,%ebx
 80485d6:	a1 88 9e 04 08       	mov    0x8049e88,%eax
 80485db:	81 eb 28 9d 04 08    	sub    $0x8049d28,%ebx
 80485e1:	c1 fb 02             	sar    $0x2,%ebx
 80485e4:	83 eb 01             	sub    $0x1,%ebx
 80485e7:	39 d8                	cmp    %ebx,%eax
 80485e9:	73 1d                	jae    8048608 <__do_global_dtors_aux+0x48>
 80485eb:	90                   	nop
 80485ec:	8d 74 26 00          	lea    0x0(%esi,%eiz,1),%esi
 80485f0:	83 c0 01             	add    $0x1,%eax
 80485f3:	a3 88 9e 04 08       	mov    %eax,0x8049e88
 80485f8:	ff 14 85 28 9d 04 08 	call   *0x8049d28(,%eax,4)
 80485ff:	a1 88 9e 04 08       	mov    0x8049e88,%eax
 8048604:	39 d8                	cmp    %ebx,%eax
 8048606:	72 e8                	jb     80485f0 <__do_global_dtors_aux+0x30>
 8048608:	c6 05 84 9e 04 08 01 	movb   $0x1,0x8049e84
 804860f:	8d 64 24 04          	lea    0x4(%esp),%esp
 8048613:	5b                   	pop    %ebx
 8048614:	5d                   	pop    %ebp
 8048615:	c3                   	ret    
 8048616:	8d 76 00             	lea    0x0(%esi),%esi
 8048619:	8d bc 27 00 00 00 00 	lea    0x0(%edi,%eiz,1),%edi

08048620 <frame_dummy>:
 8048620:	55                   	push   %ebp
 8048621:	89 e5                	mov    %esp,%ebp
 8048623:	8d 64 24 e8          	lea    -0x18(%esp),%esp
 8048627:	a1 30 9d 04 08       	mov    0x8049d30,%eax
 804862c:	85 c0                	test   %eax,%eax
 804862e:	74 12                	je     8048642 <frame_dummy+0x22>
 8048630:	b8 00 00 00 00       	mov    $0x0,%eax
 8048635:	85 c0                	test   %eax,%eax
 8048637:	74 09                	je     8048642 <frame_dummy+0x22>
 8048639:	c7 04 24 30 9d 04 08 	movl   $0x8049d30,(%esp)
 8048640:	ff d0                	call   *%eax
 8048642:	c9                   	leave  
 8048643:	c3                   	ret    

08048644 <_Z5proc1Pv>:
 8048644:	55                   	push   %ebp
 8048645:	89 e5                	mov    %esp,%ebp
 8048647:	83 ec 10             	sub    $0x10,%esp
 804864a:	c7 45 fc 00 00 00 00 	movl   $0x0,-0x4(%ebp)
 8048651:	eb 70                	jmp    80486c3 <_Z5proc1Pv+0x7f>
 8048653:	c7 05 8c 9e 04 08 01 	movl   $0x1,0x8049e8c
 804865a:	00 00 00 
 804865d:	eb 30                	jmp    804868f <_Z5proc1Pv+0x4b>
 804865f:	a1 94 9e 04 08       	mov    0x8049e94,%eax
 8048664:	85 c0                	test   %eax,%eax
 8048666:	0f 95 c0             	setne  %al
 8048669:	84 c0                	test   %al,%al
 804866b:	74 22                	je     804868f <_Z5proc1Pv+0x4b>
 804866d:	c7 05 8c 9e 04 08 00 	movl   $0x0,0x8049e8c
 8048674:	00 00 00 
 8048677:	a1 94 9e 04 08       	mov    0x8049e94,%eax
 804867c:	85 c0                	test   %eax,%eax
 804867e:	0f 95 c0             	setne  %al
 8048681:	84 c0                	test   %al,%al
 8048683:	75 f2                	jne    8048677 <_Z5proc1Pv+0x33>
 8048685:	c7 05 8c 9e 04 08 01 	movl   $0x1,0x8049e8c
 804868c:	00 00 00 
 804868f:	a1 90 9e 04 08       	mov    0x8049e90,%eax
 8048694:	83 f8 01             	cmp    $0x1,%eax
 8048697:	0f 94 c0             	sete   %al
 804869a:	84 c0                	test   %al,%al
 804869c:	75 c1                	jne    804865f <_Z5proc1Pv+0x1b>
 804869e:	a1 98 9e 04 08       	mov    0x8049e98,%eax
 80486a3:	83 c0 01             	add    $0x1,%eax
 80486a6:	a3 98 9e 04 08       	mov    %eax,0x8049e98
 80486ab:	c7 05 94 9e 04 08 01 	movl   $0x1,0x8049e94
 80486b2:	00 00 00 
 80486b5:	c7 05 8c 9e 04 08 00 	movl   $0x0,0x8049e8c
 80486bc:	00 00 00 
 80486bf:	83 45 fc 01          	addl   $0x1,-0x4(%ebp)
 80486c3:	81 7d fc ff c9 9a 3b 	cmpl   $0x3b9ac9ff,-0x4(%ebp)
 80486ca:	0f 9e c0             	setle  %al
 80486cd:	84 c0                	test   %al,%al
 80486cf:	75 82                	jne    8048653 <_Z5proc1Pv+0xf>
 80486d1:	c9                   	leave  
 80486d2:	c3                   	ret    

080486d3 <_Z5proc2Pv>:
 80486d3:	55                   	push   %ebp
 80486d4:	89 e5                	mov    %esp,%ebp
 80486d6:	83 ec 10             	sub    $0x10,%esp
 80486d9:	c7 45 fc 00 00 00 00 	movl   $0x0,-0x4(%ebp)
 80486e0:	eb 72                	jmp    8048754 <_Z5proc2Pv+0x81>
 80486e2:	c7 05 90 9e 04 08 01 	movl   $0x1,0x8049e90
 80486e9:	00 00 00 
 80486ec:	eb 32                	jmp    8048720 <_Z5proc2Pv+0x4d>
 80486ee:	a1 94 9e 04 08       	mov    0x8049e94,%eax
 80486f3:	83 f8 01             	cmp    $0x1,%eax
 80486f6:	0f 95 c0             	setne  %al
 80486f9:	84 c0                	test   %al,%al
 80486fb:	74 23                	je     8048720 <_Z5proc2Pv+0x4d>
 80486fd:	c7 05 90 9e 04 08 00 	movl   $0x0,0x8049e90
 8048704:	00 00 00 
 8048707:	a1 94 9e 04 08       	mov    0x8049e94,%eax
 804870c:	83 f8 01             	cmp    $0x1,%eax
 804870f:	0f 95 c0             	setne  %al
 8048712:	84 c0                	test   %al,%al
 8048714:	75 f1                	jne    8048707 <_Z5proc2Pv+0x34>
 8048716:	c7 05 90 9e 04 08 01 	movl   $0x1,0x8049e90
 804871d:	00 00 00 
 8048720:	a1 8c 9e 04 08       	mov    0x8049e8c,%eax
 8048725:	83 f8 01             	cmp    $0x1,%eax
 8048728:	0f 94 c0             	sete   %al
 804872b:	84 c0                	test   %al,%al
 804872d:	75 bf                	jne    80486ee <_Z5proc2Pv+0x1b>
 804872f:	a1 98 9e 04 08       	mov    0x8049e98,%eax
 8048734:	83 c0 01             	add    $0x1,%eax
 8048737:	a3 98 9e 04 08       	mov    %eax,0x8049e98
 804873c:	c7 05 94 9e 04 08 00 	movl   $0x0,0x8049e94
 8048743:	00 00 00 
 8048746:	c7 05 90 9e 04 08 00 	movl   $0x0,0x8049e90
 804874d:	00 00 00 
 8048750:	83 45 fc 01          	addl   $0x1,-0x4(%ebp)
 8048754:	81 7d fc ff c9 9a 3b 	cmpl   $0x3b9ac9ff,-0x4(%ebp)
 804875b:	0f 9e c0             	setle  %al
 804875e:	84 c0                	test   %al,%al
 8048760:	75 80                	jne    80486e2 <_Z5proc2Pv+0xf>
 8048762:	c9                   	leave  
 8048763:	c3                   	ret    

08048764 <main>:
 8048764:	55                   	push   %ebp
 8048765:	89 e5                	mov    %esp,%ebp
 8048767:	83 e4 f0             	and    $0xfffffff0,%esp
 804876a:	56                   	push   %esi
 804876b:	53                   	push   %ebx
 804876c:	81 ec 28 01 00 00    	sub    $0x128,%esp
 8048772:	c7 44 24 08 80 00 00 	movl   $0x80,0x8(%esp)
 8048779:	00 
 804877a:	c7 44 24 04 00 00 00 	movl   $0x0,0x4(%esp)
 8048781:	00 
 8048782:	8d 84 24 90 00 00 00 	lea    0x90(%esp),%eax
 8048789:	89 04 24             	mov    %eax,(%esp)
 804878c:	e8 87 fd ff ff       	call   8048518 <memset@plt>
 8048791:	c7 84 24 18 01 00 00 	movl   $0x0,0x118(%esp)
 8048798:	00 00 00 00 
 804879c:	81 bc 24 18 01 00 00 	cmpl   $0x3ff,0x118(%esp)
 80487a3:	ff 03 00 00 
 80487a7:	77 47                	ja     80487f0 <main+0x8c>
 80487a9:	8b 84 24 18 01 00 00 	mov    0x118(%esp),%eax
 80487b0:	89 c2                	mov    %eax,%edx
 80487b2:	c1 ea 05             	shr    $0x5,%edx
 80487b5:	8d 0c 95 00 00 00 00 	lea    0x0(,%edx,4),%ecx
 80487bc:	8d 84 24 90 00 00 00 	lea    0x90(%esp),%eax
 80487c3:	01 c8                	add    %ecx,%eax
 80487c5:	8d 0c 95 00 00 00 00 	lea    0x0(,%edx,4),%ecx
 80487cc:	8d 94 24 90 00 00 00 	lea    0x90(%esp),%edx
 80487d3:	01 ca                	add    %ecx,%edx
 80487d5:	8b 12                	mov    (%edx),%edx
 80487d7:	8b 8c 24 18 01 00 00 	mov    0x118(%esp),%ecx
 80487de:	83 e1 1f             	and    $0x1f,%ecx
 80487e1:	bb 01 00 00 00       	mov    $0x1,%ebx
 80487e6:	89 de                	mov    %ebx,%esi
 80487e8:	d3 e6                	shl    %cl,%esi
 80487ea:	89 f1                	mov    %esi,%ecx
 80487ec:	09 ca                	or     %ecx,%edx
 80487ee:	89 10                	mov    %edx,(%eax)
 80487f0:	c7 44 24 08 80 00 00 	movl   $0x80,0x8(%esp)
 80487f7:	00 
 80487f8:	c7 44 24 04 00 00 00 	movl   $0x0,0x4(%esp)
 80487ff:	00 
 8048800:	8d 44 24 10          	lea    0x10(%esp),%eax
 8048804:	89 04 24             	mov    %eax,(%esp)
 8048807:	e8 0c fd ff ff       	call   8048518 <memset@plt>
 804880c:	c7 84 24 1c 01 00 00 	movl   $0x1,0x11c(%esp)
 8048813:	01 00 00 00 
 8048817:	81 bc 24 1c 01 00 00 	cmpl   $0x3ff,0x11c(%esp)
 804881e:	ff 03 00 00 
 8048822:	77 41                	ja     8048865 <main+0x101>
 8048824:	8b 84 24 1c 01 00 00 	mov    0x11c(%esp),%eax
 804882b:	89 c2                	mov    %eax,%edx
 804882d:	c1 ea 05             	shr    $0x5,%edx
 8048830:	8d 0c 95 00 00 00 00 	lea    0x0(,%edx,4),%ecx
 8048837:	8d 44 24 10          	lea    0x10(%esp),%eax
 804883b:	01 c8                	add    %ecx,%eax
 804883d:	8d 0c 95 00 00 00 00 	lea    0x0(,%edx,4),%ecx
 8048844:	8d 54 24 10          	lea    0x10(%esp),%edx
 8048848:	01 ca                	add    %ecx,%edx
 804884a:	8b 12                	mov    (%edx),%edx
 804884c:	8b 8c 24 1c 01 00 00 	mov    0x11c(%esp),%ecx
 8048853:	83 e1 1f             	and    $0x1f,%ecx
 8048856:	bb 01 00 00 00       	mov    $0x1,%ebx
 804885b:	89 de                	mov    %ebx,%esi
 804885d:	d3 e6                	shl    %cl,%esi
 804885f:	89 f1                	mov    %esi,%ecx
 8048861:	09 ca                	or     %ecx,%edx
 8048863:	89 10                	mov    %edx,(%eax)
 8048865:	c7 44 24 0c 00 00 00 	movl   $0x0,0xc(%esp)
 804886c:	00 
 804886d:	c7 44 24 08 44 86 04 	movl   $0x8048644,0x8(%esp)
 8048874:	08 
 8048875:	c7 44 24 04 00 00 00 	movl   $0x0,0x4(%esp)
 804887c:	00 
 804887d:	8d 84 24 14 01 00 00 	lea    0x114(%esp),%eax
 8048884:	89 04 24             	mov    %eax,(%esp)
 8048887:	e8 cc fc ff ff       	call   8048558 <pthread_create@plt>
 804888c:	85 c0                	test   %eax,%eax
 804888e:	75 2b                	jne    80488bb <main+0x157>
 8048890:	c7 44 24 0c 00 00 00 	movl   $0x0,0xc(%esp)
 8048897:	00 
 8048898:	c7 44 24 08 d3 86 04 	movl   $0x80486d3,0x8(%esp)
 804889f:	08 
 80488a0:	c7 44 24 04 00 00 00 	movl   $0x0,0x4(%esp)
 80488a7:	00 
 80488a8:	8d 84 24 10 01 00 00 	lea    0x110(%esp),%eax
 80488af:	89 04 24             	mov    %eax,(%esp)
 80488b2:	e8 a1 fc ff ff       	call   8048558 <pthread_create@plt>
 80488b7:	85 c0                	test   %eax,%eax
 80488b9:	74 07                	je     80488c2 <main+0x15e>
 80488bb:	b8 01 00 00 00       	mov    $0x1,%eax
 80488c0:	eb 05                	jmp    80488c7 <main+0x163>
 80488c2:	b8 00 00 00 00       	mov    $0x0,%eax
 80488c7:	84 c0                	test   %al,%al
 80488c9:	74 3e                	je     8048909 <main+0x1a5>
 80488cb:	a1 60 9e 04 08       	mov    0x8049e60,%eax
 80488d0:	c7 44 24 08 5d 8b 04 	movl   $0x8048b5d,0x8(%esp)
 80488d7:	08 
 80488d8:	c7 44 24 04 73 8b 04 	movl   $0x8048b73,0x4(%esp)
 80488df:	08 
 80488e0:	89 04 24             	mov    %eax,(%esp)
 80488e3:	e8 60 fc ff ff       	call   8048548 <fprintf@plt>
 80488e8:	83 f8 ff             	cmp    $0xffffffff,%eax
 80488eb:	0f 94 c0             	sete   %al
 80488ee:	84 c0                	test   %al,%al
 80488f0:	74 0d                	je     80488ff <main+0x19b>
 80488f2:	a1 54 9e 04 08       	mov    0x8049e54,%eax
 80488f7:	89 04 24             	mov    %eax,(%esp)
 80488fa:	e8 39 fc ff ff       	call   8048538 <perror@plt>
 80488ff:	b8 01 00 00 00       	mov    $0x1,%eax
 8048904:	e9 62 01 00 00       	jmp    8048a6b <main+0x307>
 8048909:	8b 84 24 14 01 00 00 	mov    0x114(%esp),%eax
 8048910:	8d 94 24 90 00 00 00 	lea    0x90(%esp),%edx
 8048917:	89 54 24 08          	mov    %edx,0x8(%esp)
 804891b:	c7 44 24 04 80 00 00 	movl   $0x80,0x4(%esp)
 8048922:	00 
 8048923:	89 04 24             	mov    %eax,(%esp)
 8048926:	e8 4d fc ff ff       	call   8048578 <pthread_setaffinity_np@plt>
 804892b:	85 c0                	test   %eax,%eax
 804892d:	75 23                	jne    8048952 <main+0x1ee>
 804892f:	8b 84 24 10 01 00 00 	mov    0x110(%esp),%eax
 8048936:	8d 54 24 10          	lea    0x10(%esp),%edx
 804893a:	89 54 24 08          	mov    %edx,0x8(%esp)
 804893e:	c7 44 24 04 80 00 00 	movl   $0x80,0x4(%esp)
 8048945:	00 
 8048946:	89 04 24             	mov    %eax,(%esp)
 8048949:	e8 2a fc ff ff       	call   8048578 <pthread_setaffinity_np@plt>
 804894e:	85 c0                	test   %eax,%eax
 8048950:	74 07                	je     8048959 <main+0x1f5>
 8048952:	b8 01 00 00 00       	mov    $0x1,%eax
 8048957:	eb 05                	jmp    804895e <main+0x1fa>
 8048959:	b8 00 00 00 00       	mov    $0x0,%eax
 804895e:	84 c0                	test   %al,%al
 8048960:	74 3e                	je     80489a0 <main+0x23c>
 8048962:	a1 60 9e 04 08       	mov    0x8049e60,%eax
 8048967:	c7 44 24 08 78 8b 04 	movl   $0x8048b78,0x8(%esp)
 804896e:	08 
 804896f:	c7 44 24 04 73 8b 04 	movl   $0x8048b73,0x4(%esp)
 8048976:	08 
 8048977:	89 04 24             	mov    %eax,(%esp)
 804897a:	e8 c9 fb ff ff       	call   8048548 <fprintf@plt>
 804897f:	83 f8 ff             	cmp    $0xffffffff,%eax
 8048982:	0f 94 c0             	sete   %al
 8048985:	84 c0                	test   %al,%al
 8048987:	74 0d                	je     8048996 <main+0x232>
 8048989:	a1 54 9e 04 08       	mov    0x8049e54,%eax
 804898e:	89 04 24             	mov    %eax,(%esp)
 8048991:	e8 a2 fb ff ff       	call   8048538 <perror@plt>
 8048996:	b8 01 00 00 00       	mov    $0x1,%eax
 804899b:	e9 cb 00 00 00       	jmp    8048a6b <main+0x307>
 80489a0:	8b 84 24 14 01 00 00 	mov    0x114(%esp),%eax
 80489a7:	c7 44 24 04 00 00 00 	movl   $0x0,0x4(%esp)
 80489ae:	00 
 80489af:	89 04 24             	mov    %eax,(%esp)
 80489b2:	e8 41 fb ff ff       	call   80484f8 <pthread_join@plt>
 80489b7:	85 c0                	test   %eax,%eax
 80489b9:	75 1b                	jne    80489d6 <main+0x272>
 80489bb:	8b 84 24 10 01 00 00 	mov    0x110(%esp),%eax
 80489c2:	c7 44 24 04 00 00 00 	movl   $0x0,0x4(%esp)
 80489c9:	00 
 80489ca:	89 04 24             	mov    %eax,(%esp)
 80489cd:	e8 26 fb ff ff       	call   80484f8 <pthread_join@plt>
 80489d2:	85 c0                	test   %eax,%eax
 80489d4:	74 07                	je     80489dd <main+0x279>
 80489d6:	b8 01 00 00 00       	mov    $0x1,%eax
 80489db:	eb 05                	jmp    80489e2 <main+0x27e>
 80489dd:	b8 00 00 00 00       	mov    $0x0,%eax
 80489e2:	84 c0                	test   %al,%al
 80489e4:	74 3b                	je     8048a21 <main+0x2bd>
 80489e6:	a1 60 9e 04 08       	mov    0x8049e60,%eax
 80489eb:	c7 44 24 08 a2 8b 04 	movl   $0x8048ba2,0x8(%esp)
 80489f2:	08 
 80489f3:	c7 44 24 04 73 8b 04 	movl   $0x8048b73,0x4(%esp)
 80489fa:	08 
 80489fb:	89 04 24             	mov    %eax,(%esp)
 80489fe:	e8 45 fb ff ff       	call   8048548 <fprintf@plt>
 8048a03:	83 f8 ff             	cmp    $0xffffffff,%eax
 8048a06:	0f 94 c0             	sete   %al
 8048a09:	84 c0                	test   %al,%al
 8048a0b:	74 0d                	je     8048a1a <main+0x2b6>
 8048a0d:	a1 54 9e 04 08       	mov    0x8049e54,%eax
 8048a12:	89 04 24             	mov    %eax,(%esp)
 8048a15:	e8 1e fb ff ff       	call   8048538 <perror@plt>
 8048a1a:	b8 01 00 00 00       	mov    $0x1,%eax
 8048a1f:	eb 4a                	jmp    8048a6b <main+0x307>
 8048a21:	8b 15 98 9e 04 08    	mov    0x8049e98,%edx
 8048a27:	a1 80 9e 04 08       	mov    0x8049e80,%eax
 8048a2c:	89 54 24 0c          	mov    %edx,0xc(%esp)
 8048a30:	c7 44 24 08 b6 8b 04 	movl   $0x8048bb6,0x8(%esp)
 8048a37:	08 
 8048a38:	c7 44 24 04 c8 8b 04 	movl   $0x8048bc8,0x4(%esp)
 8048a3f:	08 
 8048a40:	89 04 24             	mov    %eax,(%esp)
 8048a43:	e8 00 fb ff ff       	call   8048548 <fprintf@plt>
 8048a48:	83 f8 ff             	cmp    $0xffffffff,%eax
 8048a4b:	0f 94 c0             	sete   %al
 8048a4e:	84 c0                	test   %al,%al
 8048a50:	74 14                	je     8048a66 <main+0x302>
 8048a52:	a1 54 9e 04 08       	mov    0x8049e54,%eax
 8048a57:	89 04 24             	mov    %eax,(%esp)
 8048a5a:	e8 d9 fa ff ff       	call   8048538 <perror@plt>
 8048a5f:	b8 01 00 00 00       	mov    $0x1,%eax
 8048a64:	eb 05                	jmp    8048a6b <main+0x307>
 8048a66:	b8 00 00 00 00       	mov    $0x0,%eax
 8048a6b:	81 c4 28 01 00 00    	add    $0x128,%esp
 8048a71:	5b                   	pop    %ebx
 8048a72:	5e                   	pop    %esi
 8048a73:	89 ec                	mov    %ebp,%esp
 8048a75:	5d                   	pop    %ebp
 8048a76:	c3                   	ret    
 8048a77:	90                   	nop
 8048a78:	90                   	nop
 8048a79:	90                   	nop
 8048a7a:	90                   	nop
 8048a7b:	90                   	nop
 8048a7c:	90                   	nop
 8048a7d:	90                   	nop
 8048a7e:	90                   	nop
 8048a7f:	90                   	nop

08048a80 <__libc_csu_fini>:
 8048a80:	55                   	push   %ebp
 8048a81:	89 e5                	mov    %esp,%ebp
 8048a83:	5d                   	pop    %ebp
 8048a84:	c3                   	ret    
 8048a85:	66 66 2e 0f 1f 84 00 	nopw   %cs:0x0(%eax,%eax,1)
 8048a8c:	00 00 00 00 

08048a90 <__libc_csu_init>:
 8048a90:	55                   	push   %ebp
 8048a91:	89 e5                	mov    %esp,%ebp
 8048a93:	57                   	push   %edi
 8048a94:	56                   	push   %esi
 8048a95:	53                   	push   %ebx
 8048a96:	e8 4f 00 00 00       	call   8048aea <__i686.get_pc_thunk.bx>
 8048a9b:	81 c3 85 13 00 00    	add    $0x1385,%ebx
 8048aa1:	83 ec 1c             	sub    $0x1c,%esp
 8048aa4:	e8 0f fa ff ff       	call   80484b8 <_init>
 8048aa9:	8d bb 00 ff ff ff    	lea    -0x100(%ebx),%edi
 8048aaf:	8d 83 00 ff ff ff    	lea    -0x100(%ebx),%eax
 8048ab5:	29 c7                	sub    %eax,%edi
 8048ab7:	c1 ff 02             	sar    $0x2,%edi
 8048aba:	85 ff                	test   %edi,%edi
 8048abc:	74 24                	je     8048ae2 <__libc_csu_init+0x52>
 8048abe:	31 f6                	xor    %esi,%esi
 8048ac0:	8b 45 10             	mov    0x10(%ebp),%eax
 8048ac3:	89 44 24 08          	mov    %eax,0x8(%esp)
 8048ac7:	8b 45 0c             	mov    0xc(%ebp),%eax
 8048aca:	89 44 24 04          	mov    %eax,0x4(%esp)
 8048ace:	8b 45 08             	mov    0x8(%ebp),%eax
 8048ad1:	89 04 24             	mov    %eax,(%esp)
 8048ad4:	ff 94 b3 00 ff ff ff 	call   *-0x100(%ebx,%esi,4)
 8048adb:	83 c6 01             	add    $0x1,%esi
 8048ade:	39 fe                	cmp    %edi,%esi
 8048ae0:	72 de                	jb     8048ac0 <__libc_csu_init+0x30>
 8048ae2:	83 c4 1c             	add    $0x1c,%esp
 8048ae5:	5b                   	pop    %ebx
 8048ae6:	5e                   	pop    %esi
 8048ae7:	5f                   	pop    %edi
 8048ae8:	5d                   	pop    %ebp
 8048ae9:	c3                   	ret    

08048aea <__i686.get_pc_thunk.bx>:
 8048aea:	8b 1c 24             	mov    (%esp),%ebx
 8048aed:	c3                   	ret    
 8048aee:	90                   	nop
 8048aef:	90                   	nop

08048af0 <__do_global_ctors_aux>:
 8048af0:	55                   	push   %ebp
 8048af1:	89 e5                	mov    %esp,%ebp
 8048af3:	53                   	push   %ebx
 8048af4:	8d 64 24 fc          	lea    -0x4(%esp),%esp
 8048af8:	a1 20 9d 04 08       	mov    0x8049d20,%eax
 8048afd:	83 f8 ff             	cmp    $0xffffffff,%eax
 8048b00:	74 12                	je     8048b14 <__do_global_ctors_aux+0x24>
 8048b02:	bb 20 9d 04 08       	mov    $0x8049d20,%ebx
 8048b07:	90                   	nop
 8048b08:	8d 5b fc             	lea    -0x4(%ebx),%ebx
 8048b0b:	ff d0                	call   *%eax
 8048b0d:	8b 03                	mov    (%ebx),%eax
 8048b0f:	83 f8 ff             	cmp    $0xffffffff,%eax
 8048b12:	75 f4                	jne    8048b08 <__do_global_ctors_aux+0x18>
 8048b14:	8d 64 24 04          	lea    0x4(%esp),%esp
 8048b18:	5b                   	pop    %ebx
 8048b19:	5d                   	pop    %ebp
 8048b1a:	c3                   	ret    
 8048b1b:	90                   	nop

Disassembly of section .fini:

08048b1c <_fini>:
 8048b1c:	55                   	push   %ebp
 8048b1d:	89 e5                	mov    %esp,%ebp
 8048b1f:	53                   	push   %ebx
 8048b20:	83 ec 04             	sub    $0x4,%esp
 8048b23:	e8 00 00 00 00       	call   8048b28 <_fini+0xc>
 8048b28:	5b                   	pop    %ebx
 8048b29:	81 c3 f8 12 00 00    	add    $0x12f8,%ebx
 8048b2f:	e8 8c fa ff ff       	call   80485c0 <__do_global_dtors_aux>
 8048b34:	59                   	pop    %ecx
 8048b35:	5b                   	pop    %ebx
 8048b36:	c9                   	leave  
 8048b37:	c3                   	ret    
